; ModuleID = '33/1482.c'
source_filename = "33/1482.c"
target datalayout = "e-m:e-p270:32:32-p271:32:32-p272:64:64-i64:64-f80:128-n8:16:32:64-S128"
target triple = "x86_64-pc-linux-gnu"

@.str = private unnamed_addr constant [3 x i8] c"%d\00", align 1
@.str.1 = private unnamed_addr constant [3 x i8] c"%s\00", align 1
@.str.2 = private unnamed_addr constant [4 x i8] c"%s\0A\00", align 1

; Function Attrs: noinline nounwind uwtable
define dso_local i32 @main() #0 {
  %1 = alloca i32, align 4
  %2 = alloca [1000 x [300 x i8]], align 16
  %3 = alloca [300 x i8], align 16
  %4 = alloca i32, align 4
  %5 = alloca i32, align 4
  %6 = alloca i32, align 4
  %7 = alloca i32, align 4
  store i32 0, i32* %1, align 4
  %8 = bitcast [300 x i8]* %3 to i8*
  call void @llvm.memset.p0i8.i64(i8* align 16 %8, i8 0, i64 300, i1 false)
  %9 = call i32 (i8*, ...) @__isoc99_scanf(i8* getelementptr inbounds ([3 x i8], [3 x i8]* @.str, i64 0, i64 0), i32* %4)
  store i32 0, i32* %6, align 4
  br label %10

10:                                               ; preds = %99, %0
  %11 = load i32, i32* %6, align 4
  %12 = load i32, i32* %4, align 4
  %13 = icmp slt i32 %11, %12
  br i1 %13, label %14, label %102

14:                                               ; preds = %10
  %15 = load i32, i32* %6, align 4
  %16 = sext i32 %15 to i64
  %17 = getelementptr inbounds [1000 x [300 x i8]], [1000 x [300 x i8]]* %2, i64 0, i64 %16
  %18 = getelementptr inbounds [300 x i8], [300 x i8]* %17, i64 0, i64 0
  %19 = call i32 (i8*, ...) @__isoc99_scanf(i8* getelementptr inbounds ([3 x i8], [3 x i8]* @.str.1, i64 0, i64 0), i8* %18)
  %20 = load i32, i32* %6, align 4
  %21 = sext i32 %20 to i64
  %22 = getelementptr inbounds [1000 x [300 x i8]], [1000 x [300 x i8]]* %2, i64 0, i64 %21
  %23 = getelementptr inbounds [300 x i8], [300 x i8]* %22, i64 0, i64 0
  %24 = call i64 @strlen(i8* %23) #4
  %25 = trunc i64 %24 to i32
  store i32 %25, i32* %5, align 4
  store i32 0, i32* %7, align 4
  br label %26

26:                                               ; preds = %90, %14
  %27 = load i32, i32* %7, align 4
  %28 = load i32, i32* %5, align 4
  %29 = icmp slt i32 %27, %28
  br i1 %29, label %30, label %93

30:                                               ; preds = %26
  %31 = load i32, i32* %6, align 4
  %32 = sext i32 %31 to i64
  %33 = getelementptr inbounds [1000 x [300 x i8]], [1000 x [300 x i8]]* %2, i64 0, i64 %32
  %34 = load i32, i32* %7, align 4
  %35 = sext i32 %34 to i64
  %36 = getelementptr inbounds [300 x i8], [300 x i8]* %33, i64 0, i64 %35
  %37 = load i8, i8* %36, align 1
  %38 = sext i8 %37 to i32
  %39 = icmp eq i32 %38, 84
  br i1 %39, label %40, label %44

40:                                               ; preds = %30
  %41 = load i32, i32* %7, align 4
  %42 = sext i32 %41 to i64
  %43 = getelementptr inbounds [300 x i8], [300 x i8]* %3, i64 0, i64 %42
  store i8 65, i8* %43, align 1
  br label %89

44:                                               ; preds = %30
  %45 = load i32, i32* %6, align 4
  %46 = sext i32 %45 to i64
  %47 = getelementptr inbounds [1000 x [300 x i8]], [1000 x [300 x i8]]* %2, i64 0, i64 %46
  %48 = load i32, i32* %7, align 4
  %49 = sext i32 %48 to i64
  %50 = getelementptr inbounds [300 x i8], [300 x i8]* %47, i64 0, i64 %49
  %51 = load i8, i8* %50, align 1
  %52 = sext i8 %51 to i32
  %53 = icmp eq i32 %52, 65
  br i1 %53, label %54, label %58

54:                                               ; preds = %44
  %55 = load i32, i32* %7, align 4
  %56 = sext i32 %55 to i64
  %57 = getelementptr inbounds [300 x i8], [300 x i8]* %3, i64 0, i64 %56
  store i8 84, i8* %57, align 1
  br label %88

58:                                               ; preds = %44
  %59 = load i32, i32* %6, align 4
  %60 = sext i32 %59 to i64
  %61 = getelementptr inbounds [1000 x [300 x i8]], [1000 x [300 x i8]]* %2, i64 0, i64 %60
  %62 = load i32, i32* %7, align 4
  %63 = sext i32 %62 to i64
  %64 = getelementptr inbounds [300 x i8], [300 x i8]* %61, i64 0, i64 %63
  %65 = load i8, i8* %64, align 1
  %66 = sext i8 %65 to i32
  %67 = icmp eq i32 %66, 71
  br i1 %67, label %68, label %72

68:                                               ; preds = %58
  %69 = load i32, i32* %7, align 4
  %70 = sext i32 %69 to i64
  %71 = getelementptr inbounds [300 x i8], [300 x i8]* %3, i64 0, i64 %70
  store i8 67, i8* %71, align 1
  br label %87

72:                                               ; preds = %58
  %73 = load i32, i32* %6, align 4
  %74 = sext i32 %73 to i64
  %75 = getelementptr inbounds [1000 x [300 x i8]], [1000 x [300 x i8]]* %2, i64 0, i64 %74
  %76 = load i32, i32* %7, align 4
  %77 = sext i32 %76 to i64
  %78 = getelementptr inbounds [300 x i8], [300 x i8]* %75, i64 0, i64 %77
  %79 = load i8, i8* %78, align 1
  %80 = sext i8 %79 to i32
  %81 = icmp eq i32 %80, 67
  br i1 %81, label %82, label %86

82:                                               ; preds = %72
  %83 = load i32, i32* %7, align 4
  %84 = sext i32 %83 to i64
  %85 = getelementptr inbounds [300 x i8], [300 x i8]* %3, i64 0, i64 %84
  store i8 71, i8* %85, align 1
  br label %86

86:                                               ; preds = %82, %72
  br label %87

87:                                               ; preds = %86, %68
  br label %88

88:                                               ; preds = %87, %54
  br label %89

89:                                               ; preds = %88, %40
  br label %90

90:                                               ; preds = %89
  %91 = load i32, i32* %7, align 4
  %92 = add nsw i32 %91, 1
  store i32 %92, i32* %7, align 4
  br label %26

93:                                               ; preds = %26
  %94 = load i32, i32* %7, align 4
  %95 = sext i32 %94 to i64
  %96 = getelementptr inbounds [300 x i8], [300 x i8]* %3, i64 0, i64 %95
  store i8 0, i8* %96, align 1
  %97 = getelementptr inbounds [300 x i8], [300 x i8]* %3, i64 0, i64 0
  %98 = call i32 (i8*, ...) @printf(i8* getelementptr inbounds ([4 x i8], [4 x i8]* @.str.2, i64 0, i64 0), i8* %97)
  br label %99

99:                                               ; preds = %93
  %100 = load i32, i32* %6, align 4
  %101 = add nsw i32 %100, 1
  store i32 %101, i32* %6, align 4
  br label %10

102:                                              ; preds = %10
  ret i32 0
}

; Function Attrs: argmemonly nounwind willreturn
declare void @llvm.memset.p0i8.i64(i8* nocapture writeonly, i8, i64, i1 immarg) #1

declare dso_local i32 @__isoc99_scanf(i8*, ...) #2

; Function Attrs: nounwind readonly
declare dso_local i64 @strlen(i8*) #3

declare dso_local i32 @printf(i8*, ...) #2


!llvm.module.flags = !{!0}
!llvm.ident = !{!1}

!0 = !{i32 1, !"wchar_size", i32 4}
!1 = !{!"clang version 10.0.0-4ubuntu1 "}
